; Function Attrs: mustprogress uwtable
define hidden void @_ZN19OpenColorIO_v2_4dev30DynamicPropertyGradingToneImpl8setValueERKNS_11GradingToneE(ptr noundef nonnull align 8 dereferenceable(1208) %this, ptr noundef nonnull align 8 dereferenceable(248) %value) unnamed_addr #0 align 2 {
entry:
  tail call void @_ZNK19OpenColorIO_v2_4dev11GradingTone8validateEv(ptr noundef nonnull align 8 dereferenceable(248) %value)
  %m_value = getelementptr inbounds i8, ptr %this, i64 24
  tail call void @llvm.memcpy.p0.p0.i64(ptr noundef nonnull align 8 dereferenceable(248) %m_value, ptr noundef nonnull align 8 dereferenceable(248) %value, i64 248, i1 false)
  %m_preRenderValues = getelementptr inbounds i8, ptr %this, i64 272
  tail call void @_ZN19OpenColorIO_v2_4dev20GradingTonePreRender6updateERKNS_11GradingToneE(ptr noundef nonnull align 8 dereferenceable(936) %m_preRenderValues, ptr noundef nonnull align 8 dereferenceable(248) %m_value)
  ret void
}